; Function Attrs: nounwind uwtable
define double @php_random_gammasection_closed_open(ptr %0, ptr %1, double noundef %2, double noundef %3) local_unnamed_addr #0 {
  %5 = tail call double @llvm.fabs.f64(double %2)
  %6 = tail call double @llvm.fabs.f64(double %3)
  %7 = fcmp ogt double %5, %6
  br i1 %7, label %8, label %11

8:                                                ; preds = %4
  %9 = tail call double @nextafter(double noundef %2, double noundef 0x7FEFFFFFFFFFFFFF) #4
  %10 = fsub double %9, %2
  br label %gamma_max.exit

11:                                               ; preds = %4
  %12 = tail call double @nextafter(double noundef %3, double noundef 0xFFEFFFFFFFFFFFFF) #4
  %13 = fsub double %3, %12
  br label %gamma_max.exit

gamma_max.exit:                                   ; preds = %8, %11
  %14 = phi double [ %10, %8 ], [ %13, %11 ]
  %15 = fdiv double %3, %14
  %16 = fdiv double %2, %14
  %17 = fsub double %15, %16
  %18 = fcmp ugt double %5, %6
  br i1 %18, label %24, label %19

19:                                               ; preds = %gamma_max.exit
  %20 = fneg double %2
  %21 = fdiv double %20, %14
  %22 = fsub double %17, %15
  %23 = fsub double %21, %22
  br label %ceilint.exit

24:                                               ; preds = %gamma_max.exit
  %25 = fadd double %16, %17
  %26 = fsub double %15, %25
  br label %ceilint.exit

ceilint.exit:                                     ; preds = %19, %24
  %.0.i = phi double [ %23, %19 ], [ %26, %24 ]
  %27 = tail call double @llvm.ceil.f64(double %17)
  %28 = fcmp oeq double %17, %27
  %29 = fptoui double %27 to i64
  %30 = fcmp ogt double %.0.i, 0.000000e+00
  %narrow.i = and i1 %28, %30
  %31 = zext i1 %narrow.i to i64
  %32 = add i64 %31, %29
  %33 = fcmp ole double %3, %2
  %34 = icmp eq i64 %32, 0
  %35 = select i1 %33, i1 true, i1 %34
  br i1 %35, label %62, label %36

36:                                               ; preds = %ceilint.exit
  %37 = add i64 %32, -1
  %38 = tail call i64 @php_random_range64(ptr %0, ptr %1, i64 noundef %37) #4
  %39 = add i64 %38, 1
  br i1 %18, label %53, label %40

40:                                               ; preds = %36
  %41 = icmp eq i64 %39, %32
  br i1 %41, label %62, label %42

42:                                               ; preds = %40
  %43 = lshr i64 %39, 2
  %44 = uitofp i64 %43 to double
  %45 = and i64 %39, 3
  %46 = uitofp i64 %45 to double
  %47 = fneg double %44
  %48 = fmul double %14, %47
  %49 = tail call double @llvm.fmuladd.f64(double %3, double 2.500000e-01, double %48)
  %50 = fneg double %46
  %51 = fmul double %14, %50
  %52 = tail call double @llvm.fmuladd.f64(double %49, double 4.000000e+00, double %51)
  br label %62

53:                                               ; preds = %36
  %54 = lshr i64 %38, 2
  %55 = uitofp i64 %54 to double
  %56 = and i64 %38, 3
  %57 = uitofp i64 %56 to double
  %58 = fmul double %14, %55
  %59 = tail call double @llvm.fmuladd.f64(double %2, double 2.500000e-01, double %58)
  %60 = fmul double %14, %57
  %61 = tail call double @llvm.fmuladd.f64(double %59, double 4.000000e+00, double %60)
  br label %62

62:                                               ; preds = %40, %ceilint.exit, %53, %42
  %.0 = phi double [ %52, %42 ], [ %61, %53 ], [ 0x7FF8000000000000, %ceilint.exit ], [ %2, %40 ]
  ret double %.0
}